target datalayout = "e-m:e-p270:32:32-p271:32:32-p272:64:64-i64:64-i128:128-f80:128-n8:16:32:64-S128"
target triple = "x86_64-pc-linux-gnu"

%struct.softfloat = type { i32, i32 }

@ff_log2_tab = external constant [256 x i8], align 16
@ff_dca_adpcm_vb = external constant [4096 x [4 x i16]], align 16

; Function Attrs: inlinehint nounwind uwtable
define internal i32 @mul__(i32 noundef %0, i32 noundef %1, i32 noundef %2) #3 {
  %4 = alloca i32, align 4
  %5 = alloca i32, align 4
  %6 = alloca i32, align 4
  store i32 %0, ptr %4, align 4, !tbaa !11
  store i32 %1, ptr %5, align 4, !tbaa !11
  store i32 %2, ptr %6, align 4, !tbaa !11
  %7 = load i32, ptr %4, align 4, !tbaa !11
  %8 = sext i32 %7 to i64
  %9 = load i32, ptr %5, align 4, !tbaa !11
  %10 = sext i32 %9 to i64
  %11 = mul nsw i64 %8, %10
  %12 = load i32, ptr %6, align 4, !tbaa !11
  %13 = call i32 @norm__(i64 noundef %11, i32 noundef %12)
  ret i32 %13
}

; Function Attrs: alwaysinline nounwind willreturn memory(none) uwtable
define internal i32 @av_clip_intp2_c(i32 noundef %0, i32 noundef %1) #2 {
  %3 = alloca i32, align 4
  %4 = alloca i32, align 4
  %5 = alloca i32, align 4
  store i32 %0, ptr %4, align 4, !tbaa !11
  store i32 %1, ptr %5, align 4, !tbaa !11
  %6 = load i32, ptr %4, align 4, !tbaa !11
  %7 = load i32, ptr %5, align 4, !tbaa !11
  %8 = shl i32 1, %7
  %9 = add i32 %6, %8
  %10 = load i32, ptr %5, align 4, !tbaa !11
  %11 = shl i32 2, %10
  %12 = sub i32 %11, 1
  %13 = xor i32 %12, -1
  %14 = and i32 %9, %13
  %15 = icmp ne i32 %14, 0
  br i1 %15, label %16, label %23

16:                                               ; preds = %2
  %17 = load i32, ptr %4, align 4, !tbaa !11
  %18 = ashr i32 %17, 31
  %19 = load i32, ptr %5, align 4, !tbaa !11
  %20 = shl i32 1, %19
  %21 = sub nsw i32 %20, 1
  %22 = xor i32 %18, %21
  store i32 %22, ptr %3, align 4
  br label %25

23:                                               ; preds = %2
  %24 = load i32, ptr %4, align 4, !tbaa !11
  store i32 %24, ptr %3, align 4
  br label %25

25:                                               ; preds = %23, %16
  %26 = load i32, ptr %3, align 4
  ret i32 %26
}

; Function Attrs: inlinehint nounwind uwtable
define internal i32 @norm__(i64 noundef %0, i32 noundef %1) #3 {
  %3 = alloca i32, align 4
  %4 = alloca i64, align 8
  %5 = alloca i32, align 4
  store i64 %0, ptr %4, align 8, !tbaa !13
  store i32 %1, ptr %5, align 4, !tbaa !11
  %6 = load i32, ptr %5, align 4, !tbaa !11
  %7 = icmp sgt i32 %6, 0
  br i1 %7, label %8, label %19

8:                                                ; preds = %2
  %9 = load i64, ptr %4, align 8, !tbaa !13
  %10 = load i32, ptr %5, align 4, !tbaa !11
  %11 = sub nsw i32 %10, 1
  %12 = zext i32 %11 to i64
  %13 = shl i64 1, %12
  %14 = add nsw i64 %9, %13
  %15 = load i32, ptr %5, align 4, !tbaa !11
  %16 = zext i32 %15 to i64
  %17 = ashr i64 %14, %16
  %18 = trunc i64 %17 to i32
  store i32 %18, ptr %3, align 4
  br label %22

19:                                               ; preds = %2
  %20 = load i64, ptr %4, align 8, !tbaa !13
  %21 = trunc i64 %20 to i32
  store i32 %21, ptr %3, align 4
  br label %22

22:                                               ; preds = %19, %8
  %23 = load i32, ptr %3, align 4
  ret i32 %23
}

; Function Attrs: alwaysinline nounwind willreturn memory(none) uwtable
define internal i32 @ff_log2_c(i32 noundef %0) #2 {
  %2 = alloca i32, align 4
  %3 = alloca i32, align 4
  store i32 %0, ptr %2, align 4, !tbaa !11
  call void @llvm.lifetime.start.p0(i64 4, ptr %3) #8
  store i32 0, ptr %3, align 4, !tbaa !11
  %4 = load i32, ptr %2, align 4, !tbaa !11
  %5 = and i32 %4, -65536
  %6 = icmp ne i32 %5, 0
  br i1 %6, label %7, label %12

7:                                                ; preds = %1
  %8 = load i32, ptr %2, align 4, !tbaa !11
  %9 = lshr i32 %8, 16
  store i32 %9, ptr %2, align 4, !tbaa !11
  %10 = load i32, ptr %3, align 4, !tbaa !11
  %11 = add nsw i32 %10, 16
  store i32 %11, ptr %3, align 4, !tbaa !11
  br label %12

12:                                               ; preds = %7, %1
  %13 = load i32, ptr %2, align 4, !tbaa !11
  %14 = and i32 %13, 65280
  %15 = icmp ne i32 %14, 0
  br i1 %15, label %16, label %21

16:                                               ; preds = %12
  %17 = load i32, ptr %2, align 4, !tbaa !11
  %18 = lshr i32 %17, 8
  store i32 %18, ptr %2, align 4, !tbaa !11
  %19 = load i32, ptr %3, align 4, !tbaa !11
  %20 = add nsw i32 %19, 8
  store i32 %20, ptr %3, align 4, !tbaa !11
  br label %21

21:                                               ; preds = %16, %12
  %22 = load i32, ptr %2, align 4, !tbaa !11
  %23 = zext i32 %22 to i64
  %24 = getelementptr inbounds nuw [256 x i8], ptr @ff_log2_tab, i64 0, i64 %23
  %25 = load i8, ptr %24, align 1, !tbaa !19
  %26 = zext i8 %25 to i32
  %27 = load i32, ptr %3, align 4, !tbaa !11
  %28 = add nsw i32 %27, %26
  store i32 %28, ptr %3, align 4, !tbaa !11
  %29 = load i32, ptr %3, align 4, !tbaa !11
  call void @llvm.lifetime.end.p0(i64 4, ptr %3) #8
  ret i32 %29
}

; Function Attrs: inlinehint nounwind uwtable
define internal i32 @mul32(i32 noundef %0, i32 noundef %1) #3 {
  %3 = alloca i32, align 4
  %4 = alloca i32, align 4
  store i32 %0, ptr %3, align 4, !tbaa !11
  store i32 %1, ptr %4, align 4, !tbaa !11
  %5 = load i32, ptr %3, align 4, !tbaa !11
  %6 = load i32, ptr %4, align 4, !tbaa !11
  %7 = call i32 @mul__(i32 noundef %5, i32 noundef %6, i32 noundef 32)
  ret i32 %7
}

; Function Attrs: inlinehint nounwind uwtable
define internal i32 @clip23(i32 noundef %0) #3 {
  %2 = alloca i32, align 4
  store i32 %0, ptr %2, align 4, !tbaa !11
  %3 = load i32, ptr %2, align 4, !tbaa !11
  %4 = call i32 @av_clip_intp2_c(i32 noundef %3, i32 noundef 23) #9
  ret i32 %4
}

; Function Attrs: inlinehint nounwind uwtable
define internal i32 @norm13(i64 noundef %0) #3 {
  %2 = alloca i64, align 8
  store i64 %0, ptr %2, align 8, !tbaa !13
  %3 = load i64, ptr %2, align 8, !tbaa !13
  %4 = call i32 @norm__(i64 noundef %3, i32 noundef 13)
  ret i32 %4
}

; Function Attrs: inlinehint nounwind uwtable
define internal void @ff_dca_core_dequantize(ptr noundef %0, ptr noundef %1, i32 noundef %2, i32 noundef %3, i32 noundef %4, i32 noundef %5) #3 {
  %7 = alloca ptr, align 8
  %8 = alloca ptr, align 8
  %9 = alloca i32, align 4
  %10 = alloca i32, align 4
  %11 = alloca i32, align 4
  %12 = alloca i32, align 4
  %13 = alloca i64, align 8
  %14 = alloca i32, align 4
  %15 = alloca i32, align 4
  store ptr %0, ptr %7, align 8, !tbaa !9
  store ptr %1, ptr %8, align 8, !tbaa !9
  store i32 %2, ptr %9, align 4, !tbaa !11
  store i32 %3, ptr %10, align 4, !tbaa !11
  store i32 %4, ptr %11, align 4, !tbaa !11
  store i32 %5, ptr %12, align 4, !tbaa !11
  call void @llvm.lifetime.start.p0(i64 8, ptr %13) #8
  %16 = load i32, ptr %9, align 4, !tbaa !11
  %17 = sext i32 %16 to i64
  %18 = load i32, ptr %10, align 4, !tbaa !11
  %19 = sext i32 %18 to i64
  %20 = mul nsw i64 %17, %19
  store i64 %20, ptr %13, align 8, !tbaa !13
  call void @llvm.lifetime.start.p0(i64 4, ptr %14) #8
  call void @llvm.lifetime.start.p0(i64 4, ptr %15) #8
  store i32 0, ptr %15, align 4, !tbaa !11
  %21 = load i64, ptr %13, align 8, !tbaa !13
  %22 = icmp sgt i64 %21, 8388608
  br i1 %22, label %23, label %33

23:                                               ; preds = %6
  %24 = load i64, ptr %13, align 8, !tbaa !13
  %25 = ashr i64 %24, 23
  %26 = trunc i64 %25 to i32
  %27 = call i32 @ff_log2_c(i32 noundef %26) #9
  %28 = add nsw i32 %27, 1
  store i32 %28, ptr %15, align 4, !tbaa !11
  %29 = load i32, ptr %15, align 4, !tbaa !11
  %30 = load i64, ptr %13, align 8, !tbaa !13
  %31 = zext i32 %29 to i64
  %32 = ashr i64 %30, %31
  store i64 %32, ptr %13, align 8, !tbaa !13
  br label %33

33:                                               ; preds = %23, %6
  %34 = load i32, ptr %11, align 4, !tbaa !11
  %35 = icmp ne i32 %34, 0
  br i1 %35, label %36, label %64

36:                                               ; preds = %33
  store i32 0, ptr %14, align 4, !tbaa !11
  br label %37

37:                                               ; preds = %60, %36
  %38 = load i32, ptr %14, align 4, !tbaa !11
  %39 = load i32, ptr %12, align 4, !tbaa !11
  %40 = icmp slt i32 %38, %39
  br i1 %40, label %41, label %63

41:                                               ; preds = %37
  %42 = load ptr, ptr %8, align 8, !tbaa !9
  %43 = load i32, ptr %14, align 4, !tbaa !11
  %44 = sext i32 %43 to i64
  %45 = getelementptr inbounds i32, ptr %42, i64 %44
  %46 = load i32, ptr %45, align 4, !tbaa !11
  %47 = sext i32 %46 to i64
  %48 = load i64, ptr %13, align 8, !tbaa !13
  %49 = mul nsw i64 %47, %48
  %50 = load i32, ptr %15, align 4, !tbaa !11
  %51 = sub nsw i32 22, %50
  %52 = call i32 @norm__(i64 noundef %49, i32 noundef %51)
  %53 = call i32 @clip23(i32 noundef %52)
  %54 = load ptr, ptr %7, align 8, !tbaa !9
  %55 = load i32, ptr %14, align 4, !tbaa !11
  %56 = sext i32 %55 to i64
  %57 = getelementptr inbounds i32, ptr %54, i64 %56
  %58 = load i32, ptr %57, align 4, !tbaa !11
  %59 = add nsw i32 %58, %53
  store i32 %59, ptr %57, align 4, !tbaa !11
  br label %60

60:                                               ; preds = %41
  %61 = load i32, ptr %14, align 4, !tbaa !11
  %62 = add nsw i32 %61, 1
  store i32 %62, ptr %14, align 4, !tbaa !11
  br label %37, !llvm.loop !35

63:                                               ; preds = %37
  br label %90

64:                                               ; preds = %33
  store i32 0, ptr %14, align 4, !tbaa !11
  br label %65

65:                                               ; preds = %86, %64
  %66 = load i32, ptr %14, align 4, !tbaa !11
  %67 = load i32, ptr %12, align 4, !tbaa !11
  %68 = icmp slt i32 %66, %67
  br i1 %68, label %69, label %89

69:                                               ; preds = %65
  %70 = load ptr, ptr %8, align 8, !tbaa !9
  %71 = load i32, ptr %14, align 4, !tbaa !11
  %72 = sext i32 %71 to i64
  %73 = getelementptr inbounds i32, ptr %70, i64 %72
  %74 = load i32, ptr %73, align 4, !tbaa !11
  %75 = sext i32 %74 to i64
  %76 = load i64, ptr %13, align 8, !tbaa !13
  %77 = mul nsw i64 %75, %76
  %78 = load i32, ptr %15, align 4, !tbaa !11
  %79 = sub nsw i32 22, %78
  %80 = call i32 @norm__(i64 noundef %77, i32 noundef %79)
  %81 = call i32 @clip23(i32 noundef %80)
  %82 = load ptr, ptr %7, align 8, !tbaa !9
  %83 = load i32, ptr %14, align 4, !tbaa !11
  %84 = sext i32 %83 to i64
  %85 = getelementptr inbounds i32, ptr %82, i64 %84
  store i32 %81, ptr %85, align 4, !tbaa !11
  br label %86

86:                                               ; preds = %69
  %87 = load i32, ptr %14, align 4, !tbaa !11
  %88 = add nsw i32 %87, 1
  store i32 %88, ptr %14, align 4, !tbaa !11
  br label %65, !llvm.loop !36

89:                                               ; preds = %65
  br label %90

90:                                               ; preds = %89, %63
  call void @llvm.lifetime.end.p0(i64 4, ptr %15) #8
  call void @llvm.lifetime.end.p0(i64 4, ptr %14) #8
  call void @llvm.lifetime.end.p0(i64 8, ptr %13) #8
  ret void
}

; Function Attrs: inlinehint nounwind uwtable
define internal i32 @quantize_value(i32 noundef %0, i64 %1) #3 {
  %3 = alloca %struct.softfloat, align 4
  %4 = alloca i32, align 4
  %5 = alloca i32, align 4
  store i64 %1, ptr %3, align 4
  store i32 %0, ptr %4, align 4, !tbaa !11
  call void @llvm.lifetime.start.p0(i64 4, ptr %5) #8
  %6 = getelementptr inbounds nuw %struct.softfloat, ptr %3, i32 0, i32 1
  %7 = load i32, ptr %6, align 4, !tbaa !32
  %8 = sub nsw i32 %7, 1
  %9 = shl i32 1, %8
  store i32 %9, ptr %5, align 4, !tbaa !11
  %10 = load i32, ptr %4, align 4, !tbaa !11
  %11 = getelementptr inbounds nuw %struct.softfloat, ptr %3, i32 0, i32 0
  %12 = load i32, ptr %11, align 4, !tbaa !34
  %13 = call i32 @mul32(i32 noundef %10, i32 noundef %12)
  %14 = load i32, ptr %5, align 4, !tbaa !11
  %15 = add nsw i32 %13, %14
  store i32 %15, ptr %4, align 4, !tbaa !11
  %16 = load i32, ptr %4, align 4, !tbaa !11
  %17 = getelementptr inbounds nuw %struct.softfloat, ptr %3, i32 0, i32 1
  %18 = load i32, ptr %17, align 4, !tbaa !32
  %19 = ashr i32 %16, %18
  store i32 %19, ptr %4, align 4, !tbaa !11
  %20 = load i32, ptr %4, align 4, !tbaa !11
  call void @llvm.lifetime.end.p0(i64 4, ptr %5) #8
  ret i32 %20
}

; Function Attrs: alwaysinline nounwind willreturn memory(none) uwtable
define internal i64 @av_clip64_c(i64 noundef %0, i64 noundef %1, i64 noundef %2) #2 {
  %4 = alloca i64, align 8
  %5 = alloca i64, align 8
  %6 = alloca i64, align 8
  %7 = alloca i64, align 8
  store i64 %0, ptr %5, align 8, !tbaa !13
  store i64 %1, ptr %6, align 8, !tbaa !13
  store i64 %2, ptr %7, align 8, !tbaa !13
  %8 = load i64, ptr %5, align 8, !tbaa !13
  %9 = load i64, ptr %6, align 8, !tbaa !13
  %10 = icmp slt i64 %8, %9
  br i1 %10, label %11, label %13

11:                                               ; preds = %3
  %12 = load i64, ptr %6, align 8, !tbaa !13
  store i64 %12, ptr %4, align 8
  br label %21

13:                                               ; preds = %3
  %14 = load i64, ptr %5, align 8, !tbaa !13
  %15 = load i64, ptr %7, align 8, !tbaa !13
  %16 = icmp sgt i64 %14, %15
  br i1 %16, label %17, label %19

17:                                               ; preds = %13
  %18 = load i64, ptr %7, align 8, !tbaa !13
  store i64 %18, ptr %4, align 8
  br label %21

19:                                               ; preds = %13
  %20 = load i64, ptr %5, align 8, !tbaa !13
  store i64 %20, ptr %4, align 8
  br label %21

21:                                               ; preds = %19, %17, %11
  %22 = load i64, ptr %4, align 8
  ret i64 %22
}

; Function Attrs: inlinehint nounwind uwtable
define internal i64 @ff_dcaadpcm_predict(i32 noundef %0, ptr noundef %1) #3 {
  %3 = alloca i32, align 4
  %4 = alloca ptr, align 8
  %5 = alloca i32, align 4
  %6 = alloca ptr, align 8
  %7 = alloca i64, align 8
  store i32 %0, ptr %3, align 4, !tbaa !11
  store ptr %1, ptr %4, align 8, !tbaa !9
  call void @llvm.lifetime.start.p0(i64 4, ptr %5) #8
  call void @llvm.lifetime.start.p0(i64 8, ptr %6) #8
  %8 = load i32, ptr %3, align 4, !tbaa !11
  %9 = sext i32 %8 to i64
  %10 = getelementptr inbounds [4096 x [4 x i16]], ptr @ff_dca_adpcm_vb, i64 0, i64 %9
  %11 = getelementptr inbounds [4 x i16], ptr %10, i64 0, i64 0
  store ptr %11, ptr %6, align 8, !tbaa !27
  call void @llvm.lifetime.start.p0(i64 8, ptr %7) #8
  store i64 0, ptr %7, align 8, !tbaa !13
  store i32 0, ptr %5, align 4, !tbaa !11
  br label %12

12:                                               ; preds = %32, %2
  %13 = load i32, ptr %5, align 4, !tbaa !11
  %14 = icmp slt i32 %13, 4
  br i1 %14, label %15, label %35

15:                                               ; preds = %12
  %16 = load ptr, ptr %4, align 8, !tbaa !9
  %17 = load i32, ptr %5, align 4, !tbaa !11
  %18 = sub nsw i32 3, %17
  %19 = sext i32 %18 to i64
  %20 = getelementptr inbounds i32, ptr %16, i64 %19
  %21 = load i32, ptr %20, align 4, !tbaa !11
  %22 = sext i32 %21 to i64
  %23 = load ptr, ptr %6, align 8, !tbaa !27
  %24 = load i32, ptr %5, align 4, !tbaa !11
  %25 = sext i32 %24 to i64
  %26 = getelementptr inbounds i16, ptr %23, i64 %25
  %27 = load i16, ptr %26, align 2, !tbaa !29
  %28 = sext i16 %27 to i64
  %29 = mul nsw i64 %22, %28
  %30 = load i64, ptr %7, align 8, !tbaa !13
  %31 = add nsw i64 %30, %29
  store i64 %31, ptr %7, align 8, !tbaa !13
  br label %32

32:                                               ; preds = %15
  %33 = load i32, ptr %5, align 4, !tbaa !11
  %34 = add nsw i32 %33, 1
  store i32 %34, ptr %5, align 4, !tbaa !11
  br label %12, !llvm.loop !31

35:                                               ; preds = %12
  %36 = load i64, ptr %7, align 8, !tbaa !13
  %37 = call i32 @norm13(i64 noundef %36)
  %38 = call i32 @clip23(i32 noundef %37)
  %39 = sext i32 %38 to i64
  call void @llvm.lifetime.end.p0(i64 8, ptr %7) #8
  call void @llvm.lifetime.end.p0(i64 8, ptr %6) #8
  call void @llvm.lifetime.end.p0(i64 4, ptr %5) #8
  ret i64 %39
}

; Function Attrs: nounwind uwtable
define i32 @ff_dcaadpcm_do_real(i32 noundef %0, i64 %1, i32 noundef %2, i32 noundef %3, ptr noundef %4, ptr noundef %5, ptr noundef %6, ptr noundef %7, i32 noundef %8, i32 noundef %9) #0 {
  %11 = alloca %struct.softfloat, align 4
  %12 = alloca i32, align 4
  %13 = alloca i32, align 4
  %14 = alloca i32, align 4
  %15 = alloca ptr, align 8
  %16 = alloca ptr, align 8
  %17 = alloca ptr, align 8
  %18 = alloca ptr, align 8
  %19 = alloca i32, align 4
  %20 = alloca i32, align 4
  %21 = alloca i32, align 4
  %22 = alloca i64, align 8
  %23 = alloca i32, align 4
  %24 = alloca [20 x i32], align 16
  store i64 %1, ptr %11, align 4
  store i32 %0, ptr %12, align 4, !tbaa !11
  store i32 %2, ptr %13, align 4, !tbaa !11
  store i32 %3, ptr %14, align 4, !tbaa !11
  store ptr %4, ptr %15, align 8, !tbaa !9
  store ptr %5, ptr %16, align 8, !tbaa !9
  store ptr %6, ptr %17, align 8, !tbaa !9
  store ptr %7, ptr %18, align 8, !tbaa !9
  store i32 %8, ptr %19, align 4, !tbaa !11
  store i32 %9, ptr %20, align 4, !tbaa !11
  call void @llvm.lifetime.start.p0(i64 4, ptr %21) #8
  call void @llvm.lifetime.start.p0(i64 8, ptr %22) #8
  call void @llvm.lifetime.start.p0(i64 4, ptr %23) #8
  call void @llvm.lifetime.start.p0(i64 80, ptr %24) #8
  %25 = getelementptr inbounds [20 x i32], ptr %24, i64 0, i64 0
  %26 = load ptr, ptr %15, align 8, !tbaa !9
  call void @llvm.memcpy.p0.p0.i64(ptr align 16 %25, ptr align 4 %26, i64 16, i1 false)
  store i32 0, ptr %21, align 4, !tbaa !11
  br label %27

27:                                               ; preds = %83, %10
  %28 = load i32, ptr %21, align 4, !tbaa !11
  %29 = load i32, ptr %19, align 4, !tbaa !11
  %30 = icmp slt i32 %28, %29
  br i1 %30, label %31, label %86

31:                                               ; preds = %27
  %32 = load i32, ptr %12, align 4, !tbaa !11
  %33 = load i32, ptr %21, align 4, !tbaa !11
  %34 = sext i32 %33 to i64
  %35 = getelementptr inbounds [20 x i32], ptr %24, i64 0, i64 %34
  %36 = call i64 @ff_dcaadpcm_predict(i32 noundef %32, ptr noundef %35)
  %37 = trunc i64 %36 to i32
  %38 = load i32, ptr %21, align 4, !tbaa !11
  %39 = add nsw i32 4, %38
  %40 = sext i32 %39 to i64
  %41 = getelementptr inbounds [20 x i32], ptr %24, i64 0, i64 %40
  store i32 %37, ptr %41, align 4, !tbaa !11
  %42 = load ptr, ptr %16, align 8, !tbaa !9
  %43 = load i32, ptr %21, align 4, !tbaa !11
  %44 = sext i32 %43 to i64
  %45 = getelementptr inbounds i32, ptr %42, i64 %44
  %46 = load i32, ptr %45, align 4, !tbaa !11
  %47 = sext i32 %46 to i64
  %48 = load i32, ptr %21, align 4, !tbaa !11
  %49 = add nsw i32 4, %48
  %50 = sext i32 %49 to i64
  %51 = getelementptr inbounds [20 x i32], ptr %24, i64 0, i64 %50
  %52 = load i32, ptr %51, align 4, !tbaa !11
  %53 = sext i32 %52 to i64
  %54 = shl i64 %53, 7
  %55 = sub nsw i64 %47, %54
  store i64 %55, ptr %22, align 8, !tbaa !13
  %56 = load i64, ptr %22, align 8, !tbaa !13
  %57 = load i32, ptr %20, align 4, !tbaa !11
  %58 = sub nsw i32 0, %57
  %59 = sext i32 %58 to i64
  %60 = load i32, ptr %20, align 4, !tbaa !11
  %61 = sext i32 %60 to i64
  %62 = call i64 @av_clip64_c(i64 noundef %56, i64 noundef %59, i64 noundef %61) #9
  %63 = trunc i64 %62 to i32
  %64 = load i64, ptr %11, align 4
  %65 = call i32 @quantize_value(i32 noundef %63, i64 %64)
  %66 = load ptr, ptr %18, align 8, !tbaa !9
  %67 = load i32, ptr %21, align 4, !tbaa !11
  %68 = sext i32 %67 to i64
  %69 = getelementptr inbounds i32, ptr %66, i64 %68
  store i32 %65, ptr %69, align 4, !tbaa !11
  %70 = load ptr, ptr %18, align 8, !tbaa !9
  %71 = load i32, ptr %21, align 4, !tbaa !11
  %72 = sext i32 %71 to i64
  %73 = getelementptr inbounds i32, ptr %70, i64 %72
  %74 = load i32, ptr %14, align 4, !tbaa !11
  %75 = load i32, ptr %13, align 4, !tbaa !11
  call void @ff_dca_core_dequantize(ptr noundef %23, ptr noundef %73, i32 noundef %74, i32 noundef %75, i32 noundef 0, i32 noundef 1)
  %76 = load i32, ptr %23, align 4, !tbaa !11
  %77 = load i32, ptr %21, align 4, !tbaa !11
  %78 = add nsw i32 4, %77
  %79 = sext i32 %78 to i64
  %80 = getelementptr inbounds [20 x i32], ptr %24, i64 0, i64 %79
  %81 = load i32, ptr %80, align 4, !tbaa !11
  %82 = add nsw i32 %81, %76
  store i32 %82, ptr %80, align 4, !tbaa !11
  br label %83

83:                                               ; preds = %31
  %84 = load i32, ptr %21, align 4, !tbaa !11
  %85 = add nsw i32 %84, 1
  store i32 %85, ptr %21, align 4, !tbaa !11
  br label %27, !llvm.loop !26

86:                                               ; preds = %27
  %87 = load ptr, ptr %17, align 8, !tbaa !9
  %88 = load i32, ptr %19, align 4, !tbaa !11
  %89 = sext i32 %88 to i64
  %90 = getelementptr inbounds [20 x i32], ptr %24, i64 0, i64 %89
  call void @llvm.memcpy.p0.p0.i64(ptr align 4 %87, ptr align 4 %90, i64 16, i1 false)
  call void @llvm.lifetime.end.p0(i64 80, ptr %24) #8
  call void @llvm.lifetime.end.p0(i64 4, ptr %23) #8
  call void @llvm.lifetime.end.p0(i64 8, ptr %22) #8
  call void @llvm.lifetime.end.p0(i64 4, ptr %21) #8
  ret i32 0
}