; Function Attrs: nofree norecurse nosync nounwind memory(argmem: readwrite) uwtable
define noundef i32 @ff_dcaadpcm_do_real(i32 noundef %0, i64 %1, i32 noundef %2, i32 noundef %3, ptr noundef readonly captures(none) %4, ptr noundef readonly captures(none) %5, ptr noundef writeonly captures(none) %6, ptr noundef writeonly captures(none) %7, i32 noundef %8, i32 noundef %9) local_unnamed_addr #2 {
  %11 = alloca [20 x i32], align 16
  call void @llvm.lifetime.start.p0(i64 80, ptr nonnull %11) #9
  call void @llvm.memcpy.p0.p0.i64(ptr noundef nonnull align 16 dereferenceable(16) %11, ptr noundef nonnull align 4 dereferenceable(16) %4, i64 16, i1 false)
  %12 = icmp sgt i32 %8, 0
  br i1 %12, label %.lr.ph, label %._crit_edge

.lr.ph:                                           ; preds = %10
  %13 = sext i32 %0 to i64
  %14 = getelementptr inbounds [4096 x [4 x i16]], ptr @ff_dca_adpcm_vb, i64 0, i64 %13
  %15 = sub nsw i32 0, %9
  %16 = sext i32 %15 to i64
  %17 = sext i32 %9 to i64
  %.sroa.2.0.extract.shift.i = lshr i64 %1, 32
  %.sroa.2.0.extract.trunc.i = trunc nuw i64 %.sroa.2.0.extract.shift.i to i32
  %18 = add nsw i32 %.sroa.2.0.extract.trunc.i, -1
  %19 = shl nuw i32 1, %18
  %sext.i = shl i64 %1, 32
  %20 = ashr exact i64 %sext.i, 32
  %21 = sext i32 %3 to i64
  %22 = sext i32 %2 to i64
  %23 = mul nsw i64 %21, %22
  %24 = icmp sgt i64 %23, 8388608
  %25 = lshr i64 %23, 23
  %26 = trunc i64 %25 to i32
  %.not.i.i = icmp ult i32 %26, 65536
  %27 = lshr i32 %26, 16
  %spec.select.i.i = select i1 %.not.i.i, i32 %26, i32 %27
  %spec.select12.i.i = select i1 %.not.i.i, i32 0, i32 16
  %.not11.i.i = icmp samesign ult i32 %spec.select.i.i, 256
  %28 = lshr i32 %spec.select.i.i, 8
  %29 = or disjoint i32 %spec.select12.i.i, 8
  %.110.i.i = select i1 %.not11.i.i, i32 %spec.select.i.i, i32 %28
  %.1.i.i = select i1 %.not11.i.i, i32 %spec.select12.i.i, i32 %29
  %30 = zext nneg i32 %.110.i.i to i64
  %31 = getelementptr inbounds nuw [256 x i8], ptr @ff_log2_tab, i64 0, i64 %30
  %wide.trip.count = zext nneg i32 %8 to i64
  br label %32

32:                                               ; preds = %.lr.ph, %ff_dca_core_dequantize.exit
  %indvars.iv = phi i64 [ 0, %.lr.ph ], [ %indvars.iv.next, %ff_dca_core_dequantize.exit ]
  %33 = getelementptr inbounds nuw [20 x i32], ptr %11, i64 0, i64 %indvars.iv
  br label %34

34:                                               ; preds = %34, %32
  %indvars.iv.i = phi i64 [ 0, %32 ], [ %indvars.iv.next.i, %34 ]
  %.011.i = phi i64 [ 0, %32 ], [ %43, %34 ]
  %35 = sub nuw nsw i64 3, %indvars.iv.i
  %36 = getelementptr inbounds nuw i32, ptr %33, i64 %35
  %37 = load i32, ptr %36, align 4, !tbaa !9
  %38 = sext i32 %37 to i64
  %39 = getelementptr inbounds nuw i16, ptr %14, i64 %indvars.iv.i
  %40 = load i16, ptr %39, align 2, !tbaa !20
  %41 = sext i16 %40 to i64
  %42 = mul nsw i64 %41, %38
  %43 = add nsw i64 %42, %.011.i
  %indvars.iv.next.i = add nuw nsw i64 %indvars.iv.i, 1
  %exitcond.not.i = icmp eq i64 %indvars.iv.next.i, 4
  br i1 %exitcond.not.i, label %ff_dcaadpcm_predict.exit, label %34, !llvm.loop !23

ff_dcaadpcm_predict.exit:                         ; preds = %34
  %44 = add nsw i64 %43, 4096
  %45 = lshr i64 %44, 13
  %.0.i.i.i = trunc i64 %45 to i32
  %46 = tail call i32 @llvm.smax.i32(i32 %.0.i.i.i, i32 -8388608)
  %.0.i.i9.i = tail call range(i32 -8388608, 8388608) i32 @llvm.smin.i32(i32 %46, i32 8388607)
  %47 = sext i32 %.0.i.i9.i to i64
  %48 = add nuw nsw i64 %indvars.iv, 4
  %49 = getelementptr inbounds nuw [20 x i32], ptr %11, i64 0, i64 %48
  %50 = getelementptr inbounds nuw i32, ptr %5, i64 %indvars.iv
  %51 = load i32, ptr %50, align 4, !tbaa !9
  %52 = sext i32 %51 to i64
  %53 = shl nsw i64 %47, 7
  %54 = sub nsw i64 %52, %53
  %55 = icmp slt i64 %54, %16
  %..i = tail call i64 @llvm.smin.i64(i64 %54, i64 %17)
  %56 = trunc nsw i64 %..i to i32
  %57 = select i1 %55, i32 %15, i32 %56
  %58 = sext i32 %57 to i64
  %59 = mul nsw i64 %20, %58
  %60 = add nsw i64 %59, 2147483648
  %61 = lshr i64 %60, 32
  %.0.i.i.i.i = trunc nuw i64 %61 to i32
  %62 = add nsw i32 %19, %.0.i.i.i.i
  %63 = ashr i32 %62, %.sroa.2.0.extract.trunc.i
  %64 = getelementptr inbounds nuw i32, ptr %7, i64 %indvars.iv
  store i32 %63, ptr %64, align 4, !tbaa !9
  br i1 %24, label %65, label %ff_dca_core_dequantize.exit

65:                                               ; preds = %ff_dcaadpcm_predict.exit
  %66 = load i8, ptr %31, align 1, !tbaa !13
  %67 = zext i8 %66 to i32
  %68 = add nuw nsw i32 %.1.i.i, %67
  %.fr.i = freeze i32 %68
  %69 = add nuw nsw i32 %.fr.i, 1
  %70 = zext nneg i32 %69 to i64
  %71 = lshr i64 %23, %70
  %72 = sub i32 21, %.fr.i
  br label %ff_dca_core_dequantize.exit

ff_dca_core_dequantize.exit:                      ; preds = %ff_dcaadpcm_predict.exit, %65
  %.025.i = phi i64 [ %71, %65 ], [ %23, %ff_dcaadpcm_predict.exit ]
  %.0.i22 = phi i32 [ %72, %65 ], [ 22, %ff_dcaadpcm_predict.exit ]
  %73 = sext i32 %63 to i64
  %74 = mul nsw i64 %.025.i, %73
  %75 = icmp sgt i32 %.0.i22, 0
  %76 = add nsw i32 %.0.i22, -1
  %77 = zext nneg i32 %76 to i64
  %78 = shl nuw i64 1, %77
  %79 = add nsw i64 %78, %74
  %80 = zext nneg i32 %.0.i22 to i64
  %81 = ashr i64 %79, %80
  %spec.select = select i1 %75, i64 %81, i64 %74
  %.0.i.i = trunc i64 %spec.select to i32
  %82 = tail call i32 @llvm.smax.i32(i32 %.0.i.i, i32 -8388608)
  %.0.i.i.i23 = tail call range(i32 -8388608, 8388608) i32 @llvm.smin.i32(i32 %82, i32 8388607)
  %83 = add nsw i32 %.0.i.i.i23, %.0.i.i9.i
  store i32 %83, ptr %49, align 4, !tbaa !9
  %indvars.iv.next = add nuw nsw i64 %indvars.iv, 1
  %exitcond.not = icmp eq i64 %indvars.iv.next, %wide.trip.count
  br i1 %exitcond.not, label %._crit_edge, label %32, !llvm.loop !26

._crit_edge:                                      ; preds = %ff_dca_core_dequantize.exit, %10
  %84 = sext i32 %8 to i64
  %85 = getelementptr inbounds [20 x i32], ptr %11, i64 0, i64 %84
  call void @llvm.memcpy.p0.p0.i64(ptr noundef nonnull align 4 dereferenceable(16) %6, ptr noundef nonnull align 4 dereferenceable(16) %85, i64 16, i1 false)
  call void @llvm.lifetime.end.p0(i64 80, ptr nonnull %11) #9
  ret i32 0
}